; Function Attrs: null_pointer_is_valid sspstrong uwtable
define internal i32 @dissect_cms(ptr noundef %0, ptr noundef %1, ptr noundef %2, ptr readnone captures(none) %3) #0 {
  %5 = alloca %struct._asn1_ctx_t, align 8
  call void @llvm.lifetime.start.p0(i64 208, ptr nonnull %5) #6
  call void @asn1_ctx_init(ptr noundef nonnull %5, i32 noundef 0, i1 noundef zeroext true, ptr noundef %1)
  %.not = icmp eq ptr %2, null
  br i1 %.not, label %11, label %6

6:                                                ; preds = %4
  %7 = load i32, ptr @proto_cms, align 4
  %8 = call ptr @proto_tree_add_item(ptr noundef nonnull %2, i32 noundef %7, ptr noundef %0, i32 noundef 0, i32 noundef -1, i32 noundef 0)
  %9 = load i32, ptr @ett_cms, align 4
  %10 = call ptr @proto_item_add_subtree(ptr noundef %8, i32 noundef %9)
  br label %11

11:                                               ; preds = %6, %4
  %.0 = phi ptr [ %10, %6 ], [ null, %4 ]
  %12 = getelementptr inbounds nuw i8, ptr %1, i64 8
  %13 = load ptr, ptr %12, align 8
  call void @col_set_str(ptr noundef %13, i32 noundef 35, ptr noundef nonnull @.str.409)
  %14 = load ptr, ptr %12, align 8
  call void @col_clear(ptr noundef %14, i32 noundef 25)
  %15 = call i32 @tvb_reported_length_remaining(ptr noundef %0, i32 noundef 0)
  %16 = icmp sgt i32 %15, 0
  br i1 %16, label %.lr.ph, label %._crit_edge

.lr.ph:                                           ; preds = %11, %.lr.ph
  %.01214 = phi i32 [ %18, %.lr.ph ], [ 0, %11 ]
  store ptr %.0, ptr @top_tree, align 8
  %17 = load i32, ptr @ett_cms_ContentInfo, align 4
  %18 = call i32 @dissect_ber_sequence(i1 noundef zeroext false, ptr noundef nonnull %5, ptr noundef %.0, ptr noundef %0, i32 noundef %.01214, ptr noundef nonnull @ContentInfo_sequence, i32 noundef -1, i32 noundef %17)
  store ptr null, ptr @top_tree, align 8
  %19 = call i32 @tvb_reported_length_remaining(ptr noundef %0, i32 noundef %18)
  %20 = icmp sgt i32 %19, 0
  br i1 %20, label %.lr.ph, label %._crit_edge, !llvm.loop !6

._crit_edge:                                      ; preds = %.lr.ph, %11
  %21 = call i32 @tvb_captured_length(ptr noundef %0)
  call void @llvm.lifetime.end.p0(i64 208, ptr nonnull %5) #6
  ret i32 %21
}